; Function Attrs: mustprogress nounwind uwtable
define hidden void @_ZN10ReturnNodeC2EjP4NodeS1_S1_S1_S1_(ptr noundef nonnull align 8 dereferenceable(52) %0, i32 noundef %1, ptr noundef %2, ptr noundef %3, ptr noundef %4, ptr noundef %5, ptr noundef %6) unnamed_addr #2 align 2 {
  tail call void @_ZN4NodeC2Ej(ptr noundef nonnull align 8 dereferenceable(52) %0, i32 noundef %1) #15
  store ptr getelementptr inbounds inrange(-16, 192) (i8, ptr @_ZTV10ReturnNode, i64 16), ptr %0, align 8
  %8 = getelementptr inbounds i8, ptr %0, i64 8
  %9 = load ptr, ptr %8, align 8
  store ptr %2, ptr %9, align 8
  %.not.i = icmp eq ptr %2, null
  br i1 %.not.i, label %_ZN4Node8init_reqEjPS_.exit, label %10

10:                                               ; preds = %7
  %11 = getelementptr inbounds i8, ptr %2, i64 16
  %12 = load ptr, ptr %11, align 8
  %13 = icmp eq ptr %12, null
  br i1 %13, label %_ZN4Node8init_reqEjPS_.exit, label %14

14:                                               ; preds = %10
  %15 = getelementptr inbounds i8, ptr %2, i64 32
  %16 = load i32, ptr %15, align 8
  %17 = getelementptr inbounds i8, ptr %2, i64 36
  %18 = load i32, ptr %17, align 4
  %19 = icmp eq i32 %16, %18
  br i1 %19, label %20, label %21

20:                                               ; preds = %14
  tail call void @_ZN4Node8out_growEj(ptr noundef nonnull align 8 dereferenceable(52) %2, i32 noundef %16) #15
  %.pre.i.i = load ptr, ptr %11, align 8
  %.pre2.i.i = load i32, ptr %15, align 8
  br label %21

21:                                               ; preds = %20, %14
  %22 = phi i32 [ %.pre2.i.i, %20 ], [ %16, %14 ]
  %23 = phi ptr [ %.pre.i.i, %20 ], [ %12, %14 ]
  %24 = add i32 %22, 1
  store i32 %24, ptr %15, align 8
  %25 = zext i32 %22 to i64
  %26 = getelementptr inbounds ptr, ptr %23, i64 %25
  store ptr %0, ptr %26, align 8
  br label %_ZN4Node8init_reqEjPS_.exit

_ZN4Node8init_reqEjPS_.exit:                      ; preds = %7, %10, %21
  %27 = load ptr, ptr %8, align 8
  %28 = getelementptr inbounds i8, ptr %27, i64 8
  store ptr %3, ptr %28, align 8
  %.not.i6 = icmp eq ptr %3, null
  br i1 %.not.i6, label %_ZN4Node8init_reqEjPS_.exit9, label %29

29:                                               ; preds = %_ZN4Node8init_reqEjPS_.exit
  %30 = getelementptr inbounds i8, ptr %3, i64 16
  %31 = load ptr, ptr %30, align 8
  %32 = icmp eq ptr %31, null
  br i1 %32, label %_ZN4Node8init_reqEjPS_.exit9, label %33

33:                                               ; preds = %29
  %34 = getelementptr inbounds i8, ptr %3, i64 32
  %35 = load i32, ptr %34, align 8
  %36 = getelementptr inbounds i8, ptr %3, i64 36
  %37 = load i32, ptr %36, align 4
  %38 = icmp eq i32 %35, %37
  br i1 %38, label %39, label %40

39:                                               ; preds = %33
  tail call void @_ZN4Node8out_growEj(ptr noundef nonnull align 8 dereferenceable(52) %3, i32 noundef %35) #15
  %.pre.i.i7 = load ptr, ptr %30, align 8
  %.pre2.i.i8 = load i32, ptr %34, align 8
  br label %40

40:                                               ; preds = %39, %33
  %41 = phi i32 [ %.pre2.i.i8, %39 ], [ %35, %33 ]
  %42 = phi ptr [ %.pre.i.i7, %39 ], [ %31, %33 ]
  %43 = add i32 %41, 1
  store i32 %43, ptr %34, align 8
  %44 = zext i32 %41 to i64
  %45 = getelementptr inbounds ptr, ptr %42, i64 %44
  store ptr %0, ptr %45, align 8
  br label %_ZN4Node8init_reqEjPS_.exit9

_ZN4Node8init_reqEjPS_.exit9:                     ; preds = %_ZN4Node8init_reqEjPS_.exit, %29, %40
  %46 = load ptr, ptr %8, align 8
  %47 = getelementptr inbounds i8, ptr %46, i64 16
  store ptr %4, ptr %47, align 8
  %.not.i10 = icmp eq ptr %4, null
  br i1 %.not.i10, label %_ZN4Node8init_reqEjPS_.exit13, label %48

48:                                               ; preds = %_ZN4Node8init_reqEjPS_.exit9
  %49 = getelementptr inbounds i8, ptr %4, i64 16
  %50 = load ptr, ptr %49, align 8
  %51 = icmp eq ptr %50, null
  br i1 %51, label %_ZN4Node8init_reqEjPS_.exit13, label %52

52:                                               ; preds = %48
  %53 = getelementptr inbounds i8, ptr %4, i64 32
  %54 = load i32, ptr %53, align 8
  %55 = getelementptr inbounds i8, ptr %4, i64 36
  %56 = load i32, ptr %55, align 4
  %57 = icmp eq i32 %54, %56
  br i1 %57, label %58, label %59

58:                                               ; preds = %52
  tail call void @_ZN4Node8out_growEj(ptr noundef nonnull align 8 dereferenceable(52) %4, i32 noundef %54) #15
  %.pre.i.i11 = load ptr, ptr %49, align 8
  %.pre2.i.i12 = load i32, ptr %53, align 8
  br label %59

59:                                               ; preds = %58, %52
  %60 = phi i32 [ %.pre2.i.i12, %58 ], [ %54, %52 ]
  %61 = phi ptr [ %.pre.i.i11, %58 ], [ %50, %52 ]
  %62 = add i32 %60, 1
  store i32 %62, ptr %53, align 8
  %63 = zext i32 %60 to i64
  %64 = getelementptr inbounds ptr, ptr %61, i64 %63
  store ptr %0, ptr %64, align 8
  br label %_ZN4Node8init_reqEjPS_.exit13

_ZN4Node8init_reqEjPS_.exit13:                    ; preds = %_ZN4Node8init_reqEjPS_.exit9, %48, %59
  %65 = load ptr, ptr %8, align 8
  %66 = getelementptr inbounds i8, ptr %65, i64 24
  store ptr %5, ptr %66, align 8
  %.not.i14 = icmp eq ptr %5, null
  br i1 %.not.i14, label %_ZN4Node8init_reqEjPS_.exit17, label %67

67:                                               ; preds = %_ZN4Node8init_reqEjPS_.exit13
  %68 = getelementptr inbounds i8, ptr %5, i64 16
  %69 = load ptr, ptr %68, align 8
  %70 = icmp eq ptr %69, null
  br i1 %70, label %_ZN4Node8init_reqEjPS_.exit17, label %71

71:                                               ; preds = %67
  %72 = getelementptr inbounds i8, ptr %5, i64 32
  %73 = load i32, ptr %72, align 8
  %74 = getelementptr inbounds i8, ptr %5, i64 36
  %75 = load i32, ptr %74, align 4
  %76 = icmp eq i32 %73, %75
  br i1 %76, label %77, label %78

77:                                               ; preds = %71
  tail call void @_ZN4Node8out_growEj(ptr noundef nonnull align 8 dereferenceable(52) %5, i32 noundef %73) #15
  %.pre.i.i15 = load ptr, ptr %68, align 8
  %.pre2.i.i16 = load i32, ptr %72, align 8
  br label %78

78:                                               ; preds = %77, %71
  %79 = phi i32 [ %.pre2.i.i16, %77 ], [ %73, %71 ]
  %80 = phi ptr [ %.pre.i.i15, %77 ], [ %69, %71 ]
  %81 = add i32 %79, 1
  store i32 %81, ptr %72, align 8
  %82 = zext i32 %79 to i64
  %83 = getelementptr inbounds ptr, ptr %80, i64 %82
  store ptr %0, ptr %83, align 8
  br label %_ZN4Node8init_reqEjPS_.exit17

_ZN4Node8init_reqEjPS_.exit17:                    ; preds = %_ZN4Node8init_reqEjPS_.exit13, %67, %78
  %84 = load ptr, ptr %8, align 8
  %85 = getelementptr inbounds i8, ptr %84, i64 32
  store ptr %6, ptr %85, align 8
  %.not.i18 = icmp eq ptr %6, null
  br i1 %.not.i18, label %_ZN4Node8init_reqEjPS_.exit21, label %86

86:                                               ; preds = %_ZN4Node8init_reqEjPS_.exit17
  %87 = getelementptr inbounds i8, ptr %6, i64 16
  %88 = load ptr, ptr %87, align 8
  %89 = icmp eq ptr %88, null
  br i1 %89, label %_ZN4Node8init_reqEjPS_.exit21, label %90

90:                                               ; preds = %86
  %91 = getelementptr inbounds i8, ptr %6, i64 32
  %92 = load i32, ptr %91, align 8
  %93 = getelementptr inbounds i8, ptr %6, i64 36
  %94 = load i32, ptr %93, align 4
  %95 = icmp eq i32 %92, %94
  br i1 %95, label %96, label %97

96:                                               ; preds = %90
  tail call void @_ZN4Node8out_growEj(ptr noundef nonnull align 8 dereferenceable(52) %6, i32 noundef %92) #15
  %.pre.i.i19 = load ptr, ptr %87, align 8
  %.pre2.i.i20 = load i32, ptr %91, align 8
  br label %97

97:                                               ; preds = %96, %90
  %98 = phi i32 [ %.pre2.i.i20, %96 ], [ %92, %90 ]
  %99 = phi ptr [ %.pre.i.i19, %96 ], [ %88, %90 ]
  %100 = add i32 %98, 1
  store i32 %100, ptr %91, align 8
  %101 = zext i32 %98 to i64
  %102 = getelementptr inbounds ptr, ptr %99, i64 %101
  store ptr %0, ptr %102, align 8
  br label %_ZN4Node8init_reqEjPS_.exit21

_ZN4Node8init_reqEjPS_.exit21:                    ; preds = %_ZN4Node8init_reqEjPS_.exit17, %86, %97
  ret void
}